target datalayout = "e-m:e-p270:32:32-p271:32:32-p272:64:64-i64:64-i128:128-f80:128-n8:16:32:64-S128"
target triple = "x86_64-unknown-linux-gnu"

%struct.UResourceBundle = type { ptr, ptr, ptr, ptr, ptr, [64 x i8], i32, i32, i8, i8, i32, i32, i32, i32 }
%struct.UResourceDataEntry = type { ptr, ptr, ptr, ptr, ptr, %struct.ResourceData, [3 x i8], i32, i32 }
%struct.ResourceData = type { ptr, ptr, ptr, ptr, i32, i32, ptr, i32, i32, i8, i8, i8, i8 }

; Function Attrs: mustprogress uwtable
define internal noundef ptr @_ZN12_GLOBAL__N_116init_resb_resultEP18UResourceDataEntryjPKciPK15UResourceBundlePS4_P10UErrorCode(ptr noundef %dataEntry, i32 noundef %r, ptr noundef %key, i32 noundef %idx, ptr noundef %container, ptr noundef %resB, ptr noundef %status) #1 {
entry:
  %dataEntry.addr = alloca ptr, align 8
  %r.addr = alloca i32, align 4
  %key.addr = alloca ptr, align 8
  %idx.addr = alloca i32, align 4
  %container.addr = alloca ptr, align 8
  %resB.addr = alloca ptr, align 8
  %status.addr = alloca ptr, align 8
  store ptr %dataEntry, ptr %dataEntry.addr, align 8
  store i32 %r, ptr %r.addr, align 4
  store ptr %key, ptr %key.addr, align 8
  store i32 %idx, ptr %idx.addr, align 4
  store ptr %container, ptr %container.addr, align 8
  store ptr %resB, ptr %resB.addr, align 8
  store ptr %status, ptr %status.addr, align 8
  %0 = load ptr, ptr %dataEntry.addr, align 8
  %1 = load i32, ptr %r.addr, align 4
  %2 = load ptr, ptr %key.addr, align 8
  %3 = load i32, ptr %idx.addr, align 4
  %4 = load ptr, ptr %container.addr, align 8
  %fValidLocaleDataEntry = getelementptr inbounds %struct.UResourceBundle, ptr %4, i32 0, i32 3
  %5 = load ptr, ptr %fValidLocaleDataEntry, align 8
  %6 = load ptr, ptr %container.addr, align 8
  %fResPath = getelementptr inbounds %struct.UResourceBundle, ptr %6, i32 0, i32 4
  %7 = load ptr, ptr %fResPath, align 8
  %8 = load ptr, ptr %resB.addr, align 8
  %9 = load ptr, ptr %status.addr, align 8
  %call = call noundef ptr @_ZN12_GLOBAL__N_116init_resb_resultEP18UResourceDataEntryjPKciS1_S3_iP15UResourceBundleP10UErrorCode(ptr noundef %0, i32 noundef %1, ptr noundef %2, i32 noundef %3, ptr noundef %5, ptr noundef %7, i32 noundef 0, ptr noundef %8, ptr noundef %9)
  ret ptr %call
}

; Function Attrs: mustprogress nounwind uwtable
define linkonce_odr noundef nonnull align 8 dereferenceable(64) ptr @_ZNK15UResourceBundle10getResDataEv(ptr noundef nonnull align 8 dereferenceable(136) %this) #0 comdat align 2 {
entry:
  %this.addr = alloca ptr, align 8
  store ptr %this, ptr %this.addr, align 8
  %this1 = load ptr, ptr %this.addr, align 8
  %fData = getelementptr inbounds %struct.UResourceBundle, ptr %this1, i32 0, i32 1
  %0 = load ptr, ptr %fData, align 8
  %fData2 = getelementptr inbounds %struct.UResourceDataEntry, ptr %0, i32 0, i32 5
  ret ptr %fData2
}

; Function Attrs: mustprogress nounwind uwtable
define internal noundef signext i8 @_ZL9U_FAILURE10UErrorCode(i32 noundef %code) #0 {
entry:
  %code.addr = alloca i32, align 4
  store i32 %code, ptr %code.addr, align 4
  %0 = load i32, ptr %code.addr, align 4
  %cmp = icmp sgt i32 %0, 0
  %conv = zext i1 %cmp to i8
  ret i8 %conv
}

; Function Attrs: mustprogress uwtable
define ptr @ures_getByIndex_75(ptr noundef %resB, i32 noundef %indexR, ptr noundef %fillIn, ptr noundef %status) #1 {
entry:
  %retval = alloca ptr, align 8
  %resB.addr = alloca ptr, align 8
  %indexR.addr = alloca i32, align 4
  %fillIn.addr = alloca ptr, align 8
  %status.addr = alloca ptr, align 8
  %key = alloca ptr, align 8
  %r = alloca i32, align 4
  store ptr %resB, ptr %resB.addr, align 8
  store i32 %indexR, ptr %indexR.addr, align 4
  store ptr %fillIn, ptr %fillIn.addr, align 8
  store ptr %status, ptr %status.addr, align 8
  store ptr null, ptr %key, align 8
  store i32 -1, ptr %r, align 4
  %0 = load ptr, ptr %status.addr, align 8
  %cmp = icmp eq ptr %0, null
  br i1 %cmp, label %if.then, label %lor.lhs.false

lor.lhs.false:                                    ; preds = %entry
  %1 = load ptr, ptr %status.addr, align 8
  %2 = load i32, ptr %1, align 4
  %call = call noundef signext i8 @_ZL9U_FAILURE10UErrorCode(i32 noundef %2)
  %tobool = icmp ne i8 %call, 0
  br i1 %tobool, label %if.then, label %if.end

if.then:                                          ; preds = %lor.lhs.false, %entry
  %3 = load ptr, ptr %fillIn.addr, align 8
  store ptr %3, ptr %retval, align 8
  br label %return

if.end:                                           ; preds = %lor.lhs.false
  %4 = load ptr, ptr %resB.addr, align 8
  %cmp1 = icmp eq ptr %4, null
  br i1 %cmp1, label %if.then2, label %if.end3

if.then2:                                         ; preds = %if.end
  %5 = load ptr, ptr %status.addr, align 8
  store i32 1, ptr %5, align 4
  %6 = load ptr, ptr %fillIn.addr, align 8
  store ptr %6, ptr %retval, align 8
  br label %return

if.end3:                                          ; preds = %if.end
  %7 = load i32, ptr %indexR.addr, align 4
  %cmp4 = icmp sge i32 %7, 0
  br i1 %cmp4, label %land.lhs.true, label %if.else

land.lhs.true:                                    ; preds = %if.end3
  %8 = load ptr, ptr %resB.addr, align 8
  %fSize = getelementptr inbounds %struct.UResourceBundle, ptr %8, i32 0, i32 13
  %9 = load i32, ptr %fSize, align 8
  %10 = load i32, ptr %indexR.addr, align 4
  %cmp5 = icmp sgt i32 %9, %10
  br i1 %cmp5, label %if.then6, label %if.else

if.then6:                                         ; preds = %land.lhs.true
  %11 = load ptr, ptr %resB.addr, align 8
  %fRes = getelementptr inbounds %struct.UResourceBundle, ptr %11, i32 0, i32 7
  %12 = load i32, ptr %fRes, align 4
  %shr = lshr i32 %12, 28
  switch i32 %shr, label %sw.default [
    i32 7, label %sw.bb
    i32 1, label %sw.bb
    i32 0, label %sw.bb
    i32 6, label %sw.bb
    i32 14, label %sw.bb
    i32 2, label %sw.bb8
    i32 5, label %sw.bb8
    i32 4, label %sw.bb8
    i32 8, label %sw.bb18
    i32 9, label %sw.bb18
  ]

sw.bb:                                            ; preds = %if.then6, %if.then6, %if.then6, %if.then6, %if.then6
  %13 = load ptr, ptr %fillIn.addr, align 8
  %14 = load ptr, ptr %resB.addr, align 8
  %15 = load ptr, ptr %status.addr, align 8
  %call7 = call ptr @ures_copyResb_75(ptr noundef %13, ptr noundef %14, ptr noundef %15)
  store ptr %call7, ptr %retval, align 8
  br label %return

sw.bb8:                                           ; preds = %if.then6, %if.then6, %if.then6
  %16 = load ptr, ptr %resB.addr, align 8
  %call9 = call noundef nonnull align 8 dereferenceable(64) ptr @_ZNK15UResourceBundle10getResDataEv(ptr noundef nonnull align 8 dereferenceable(136) %16)
  %17 = load ptr, ptr %resB.addr, align 8
  %fRes10 = getelementptr inbounds %struct.UResourceBundle, ptr %17, i32 0, i32 7
  %18 = load i32, ptr %fRes10, align 4
  %19 = load i32, ptr %indexR.addr, align 4
  %call11 = call i32 @res_getTableItemByIndex_75(ptr noundef %call9, i32 noundef %18, i32 noundef %19, ptr noundef %key)
  store i32 %call11, ptr %r, align 4
  %20 = load i32, ptr %r, align 4
  %cmp12 = icmp eq i32 %20, -1
  br i1 %cmp12, label %land.lhs.true13, label %if.end16

land.lhs.true13:                                  ; preds = %sw.bb8
  %21 = load ptr, ptr %resB.addr, align 8
  %fHasFallback = getelementptr inbounds %struct.UResourceBundle, ptr %21, i32 0, i32 8
  %22 = load i8, ptr %fHasFallback, align 8
  %tobool14 = icmp ne i8 %22, 0
  br i1 %tobool14, label %if.then15, label %if.end16

if.then15:                                        ; preds = %land.lhs.true13
  br label %if.end16

if.end16:                                         ; preds = %if.then15, %land.lhs.true13, %sw.bb8
  %23 = load ptr, ptr %resB.addr, align 8
  %fData = getelementptr inbounds %struct.UResourceBundle, ptr %23, i32 0, i32 1
  %24 = load ptr, ptr %fData, align 8
  %25 = load i32, ptr %r, align 4
  %26 = load ptr, ptr %key, align 8
  %27 = load i32, ptr %indexR.addr, align 4
  %28 = load ptr, ptr %resB.addr, align 8
  %29 = load ptr, ptr %fillIn.addr, align 8
  %30 = load ptr, ptr %status.addr, align 8
  %call17 = call noundef ptr @_ZN12_GLOBAL__N_116init_resb_resultEP18UResourceDataEntryjPKciPK15UResourceBundlePS4_P10UErrorCode(ptr noundef %24, i32 noundef %25, ptr noundef %26, i32 noundef %27, ptr noundef %28, ptr noundef %29, ptr noundef %30)
  store ptr %call17, ptr %retval, align 8
  br label %return

sw.bb18:                                          ; preds = %if.then6, %if.then6
  %31 = load ptr, ptr %resB.addr, align 8
  %call19 = call noundef nonnull align 8 dereferenceable(64) ptr @_ZNK15UResourceBundle10getResDataEv(ptr noundef nonnull align 8 dereferenceable(136) %31)
  %32 = load ptr, ptr %resB.addr, align 8
  %fRes20 = getelementptr inbounds %struct.UResourceBundle, ptr %32, i32 0, i32 7
  %33 = load i32, ptr %fRes20, align 4
  %34 = load i32, ptr %indexR.addr, align 4
  %call21 = call i32 @res_getArrayItem_75(ptr noundef %call19, i32 noundef %33, i32 noundef %34)
  store i32 %call21, ptr %r, align 4
  %35 = load i32, ptr %r, align 4
  %cmp22 = icmp eq i32 %35, -1
  br i1 %cmp22, label %land.lhs.true23, label %if.end27

land.lhs.true23:                                  ; preds = %sw.bb18
  %36 = load ptr, ptr %resB.addr, align 8
  %fHasFallback24 = getelementptr inbounds %struct.UResourceBundle, ptr %36, i32 0, i32 8
  %37 = load i8, ptr %fHasFallback24, align 8
  %tobool25 = icmp ne i8 %37, 0
  br i1 %tobool25, label %if.then26, label %if.end27

if.then26:                                        ; preds = %land.lhs.true23
  br label %if.end27

if.end27:                                         ; preds = %if.then26, %land.lhs.true23, %sw.bb18
  %38 = load ptr, ptr %resB.addr, align 8
  %fData28 = getelementptr inbounds %struct.UResourceBundle, ptr %38, i32 0, i32 1
  %39 = load ptr, ptr %fData28, align 8
  %40 = load i32, ptr %r, align 4
  %41 = load ptr, ptr %key, align 8
  %42 = load i32, ptr %indexR.addr, align 4
  %43 = load ptr, ptr %resB.addr, align 8
  %44 = load ptr, ptr %fillIn.addr, align 8
  %45 = load ptr, ptr %status.addr, align 8
  %call29 = call noundef ptr @_ZN12_GLOBAL__N_116init_resb_resultEP18UResourceDataEntryjPKciPK15UResourceBundlePS4_P10UErrorCode(ptr noundef %39, i32 noundef %40, ptr noundef %41, i32 noundef %42, ptr noundef %43, ptr noundef %44, ptr noundef %45)
  store ptr %call29, ptr %retval, align 8
  br label %return

sw.default:                                       ; preds = %if.then6
  %46 = load ptr, ptr %fillIn.addr, align 8
  store ptr %46, ptr %retval, align 8
  br label %return

if.else:                                          ; preds = %land.lhs.true, %if.end3
  %47 = load ptr, ptr %status.addr, align 8
  store i32 2, ptr %47, align 4
  br label %if.end30

if.end30:                                         ; preds = %if.else
  %48 = load ptr, ptr %fillIn.addr, align 8
  store ptr %48, ptr %retval, align 8
  br label %return

return:                                           ; preds = %if.end30, %sw.default, %if.end27, %if.end16, %sw.bb, %if.then2, %if.then
  %49 = load ptr, ptr %retval, align 8
  ret ptr %49
}