; Function Attrs: mustprogress uwtable
define noundef ptr @ures_getByIndex_75(ptr noundef %resB, i32 noundef %indexR, ptr noundef %fillIn, ptr noundef %status) local_unnamed_addr #1 {
entry:
  %key = alloca ptr, align 8
  store ptr null, ptr %key, align 8
  %cmp = icmp eq ptr %status, null
  br i1 %cmp, label %return, label %lor.lhs.false

lor.lhs.false:                                    ; preds = %entry
  %0 = load i32, ptr %status, align 4
  %cmp.i = icmp slt i32 %0, 1
  br i1 %cmp.i, label %if.end, label %return

if.end:                                           ; preds = %lor.lhs.false
  %cmp1 = icmp eq ptr %resB, null
  br i1 %cmp1, label %if.then2, label %if.end3

if.then2:                                         ; preds = %if.end
  store i32 1, ptr %status, align 4
  br label %return

if.end3:                                          ; preds = %if.end
  %cmp4 = icmp sgt i32 %indexR, -1
  br i1 %cmp4, label %land.lhs.true, label %if.else

land.lhs.true:                                    ; preds = %if.end3
  %fSize = getelementptr inbounds i8, ptr %resB, i64 128
  %1 = load i32, ptr %fSize, align 8
  %cmp5 = icmp sgt i32 %1, %indexR
  br i1 %cmp5, label %if.then6, label %if.else

if.then6:                                         ; preds = %land.lhs.true
  %fRes = getelementptr inbounds i8, ptr %resB, i64 108
  %2 = load i32, ptr %fRes, align 4
  %shr = lshr i32 %2, 28
  switch i32 %shr, label %return [
    i32 7, label %sw.bb
    i32 1, label %sw.bb
    i32 0, label %sw.bb
    i32 6, label %sw.bb
    i32 14, label %sw.bb
    i32 2, label %sw.bb8
    i32 5, label %sw.bb8
    i32 4, label %sw.bb8
    i32 8, label %sw.bb18
    i32 9, label %sw.bb18
  ]

sw.bb:                                            ; preds = %if.then6, %if.then6, %if.then6, %if.then6, %if.then6
  %call7 = tail call ptr @ures_copyResb_75(ptr noundef %fillIn, ptr noundef nonnull %resB, ptr noundef nonnull %status)
  br label %return

sw.bb8:                                           ; preds = %if.then6, %if.then6, %if.then6
  %fData.i = getelementptr inbounds i8, ptr %resB, i64 8
  %3 = load ptr, ptr %fData.i, align 8
  %fData2.i = getelementptr inbounds i8, ptr %3, i64 40
  %call11 = call i32 @res_getTableItemByIndex_75(ptr noundef nonnull %fData2.i, i32 noundef %2, i32 noundef %indexR, ptr noundef nonnull %key)
  %4 = load ptr, ptr %fData.i, align 8
  %5 = load ptr, ptr %key, align 8
  %6 = getelementptr i8, ptr %resB, i64 24
  %resB.val33 = load ptr, ptr %6, align 8
  %7 = getelementptr i8, ptr %resB, i64 32
  %resB.val34 = load ptr, ptr %7, align 8
  %call.i = call fastcc noundef ptr @_ZN12_GLOBAL__N_116init_resb_resultEP18UResourceDataEntryjPKciS1_S3_iP15UResourceBundleP10UErrorCode(ptr noundef %4, i32 noundef %call11, ptr noundef %5, i32 noundef %indexR, ptr noundef %resB.val33, ptr noundef %resB.val34, i32 noundef 0, ptr noundef %fillIn, ptr noundef nonnull %status)
  br label %return

sw.bb18:                                          ; preds = %if.then6, %if.then6
  %fData.i35 = getelementptr inbounds i8, ptr %resB, i64 8
  %8 = load ptr, ptr %fData.i35, align 8
  %fData2.i36 = getelementptr inbounds i8, ptr %8, i64 40
  %call21 = tail call i32 @res_getArrayItem_75(ptr noundef nonnull %fData2.i36, i32 noundef %2, i32 noundef %indexR)
  %9 = load ptr, ptr %fData.i35, align 8
  %10 = getelementptr i8, ptr %resB, i64 24
  %resB.val = load ptr, ptr %10, align 8
  %11 = getelementptr i8, ptr %resB, i64 32
  %resB.val32 = load ptr, ptr %11, align 8
  %call.i37 = tail call fastcc noundef ptr @_ZN12_GLOBAL__N_116init_resb_resultEP18UResourceDataEntryjPKciS1_S3_iP15UResourceBundleP10UErrorCode(ptr noundef %9, i32 noundef %call21, ptr noundef null, i32 noundef %indexR, ptr noundef %resB.val, ptr noundef %resB.val32, i32 noundef 0, ptr noundef %fillIn, ptr noundef nonnull %status)
  br label %return

if.else:                                          ; preds = %land.lhs.true, %if.end3
  store i32 2, ptr %status, align 4
  br label %return

return:                                           ; preds = %if.then6, %entry, %lor.lhs.false, %if.else, %sw.bb18, %sw.bb8, %sw.bb, %if.then2
  %retval.0 = phi ptr [ %fillIn, %if.then2 ], [ %call.i37, %sw.bb18 ], [ %call.i, %sw.bb8 ], [ %call7, %sw.bb ], [ %fillIn, %if.else ], [ %fillIn, %lor.lhs.false ], [ %fillIn, %entry ], [ %fillIn, %if.then6 ]
  ret ptr %retval.0
}